target datalayout = "e-m:e-p270:32:32-p271:32:32-p272:64:64-i64:64-i128:128-f80:128-n8:16:32:64-S128"
target triple = "x86_64-unknown-linux-gnu"

%"class.grpc_core::Duration" = type { i64 }
%"struct.std::_Rb_tree_header" = type { %"struct.std::_Rb_tree_node_base", i64 }
%"struct.std::_Rb_tree_node_base" = type { i32, ptr, ptr, ptr }
%"class.std::__cxx11::basic_string" = type { %"struct.std::__cxx11::basic_string<char>::_Alloc_hider", i64, %union.anon }
%"struct.std::__cxx11::basic_string<char>::_Alloc_hider" = type { ptr }
%union.anon = type { i64, [8 x i8] }
%"class.absl::lts_20230802::Status" = type { i64 }
%"struct.std::_Rb_tree_key_compare.80" = type { %"struct.std::less.81" }
%"struct.std::less.81" = type { i8 }
%"class.grpc_core::RefCount" = type { %"struct.std::atomic.118" }
%"struct.std::atomic.118" = type { %"struct.std::__atomic_base.119" }
%"struct.std::__atomic_base.119" = type { i64 }
%"class.grpc_core::RefCountedPtr.163" = type { ptr }
%"class.std::unique_ptr.164" = type { %"struct.std::__uniq_ptr_data.165" }
%"struct.std::__uniq_ptr_data.165" = type { %"class.std::__uniq_ptr_impl.166" }
%"class.std::__uniq_ptr_impl.166" = type { %"class.std::tuple.167" }
%"class.std::tuple.167" = type { %"struct.std::_Tuple_impl.168" }
%"struct.std::_Tuple_impl.168" = type { %"struct.std::_Head_base.171" }
%"struct.std::_Head_base.171" = type { ptr }
%"class.std::shared_ptr" = type { %"class.std::__shared_ptr" }
%"class.std::__shared_ptr" = type { ptr, %"class.std::__shared_count" }
%"class.std::__shared_count" = type { ptr }
%"class.std::unique_ptr.172" = type { %"struct.std::__uniq_ptr_data.173" }
%"struct.std::__uniq_ptr_data.173" = type { %"class.std::__uniq_ptr_impl.174" }
%"class.std::__uniq_ptr_impl.174" = type { %"class.std::tuple.175" }
%"class.std::tuple.175" = type { %"struct.std::_Tuple_impl.176" }
%"struct.std::_Tuple_impl.176" = type { %"struct.std::_Head_base.179" }
%"struct.std::_Head_base.179" = type { ptr }
%"class.grpc_core::ChannelArgs" = type { %"class.grpc_core::AVL" }
%"class.grpc_core::AVL" = type { %"class.grpc_core::RefCountedPtr.180" }
%"class.grpc_core::RefCountedPtr.180" = type { ptr }
%"class.grpc_core::(anonymous namespace)::PriorityLb" = type <{ %"class.grpc_core::LoadBalancingPolicy", %"class.grpc_core::Duration", %"class.grpc_core::ChannelArgs", %"class.grpc_core::RefCountedPtr.163", %"class.absl::lts_20230802::StatusOr.187", %"class.std::__cxx11::basic_string", i8, i8, [6 x i8], %"class.std::map.201", i32, [4 x i8] }>
%"class.grpc_core::LoadBalancingPolicy" = type { %"class.grpc_core::InternallyRefCounted", %"class.std::shared_ptr", ptr, %"class.std::unique_ptr.172", %"class.grpc_core::ChannelArgs" }
%"class.grpc_core::InternallyRefCounted" = type { %"class.grpc_core::Orphanable", %"class.grpc_core::RefCount" }
%"class.grpc_core::Orphanable" = type { ptr }
%"class.absl::lts_20230802::StatusOr.187" = type { %"class.absl::lts_20230802::internal_statusor::StatusOrData.188" }
%"class.absl::lts_20230802::internal_statusor::StatusOrData.188" = type { %union.anon.189, %union.anon.190 }
%union.anon.189 = type { %"class.absl::lts_20230802::Status" }
%union.anon.190 = type { %"class.std::map.191" }
%"class.std::map.191" = type { %"class.std::_Rb_tree.192" }
%"class.std::_Rb_tree.192" = type { %"struct.std::_Rb_tree<grpc_core::RefCountedStringValue, std::pair<const grpc_core::RefCountedStringValue, std::shared_ptr<grpc_core::EndpointAddressesIterator>>, std::_Select1st<std::pair<const grpc_core::RefCountedStringValue, std::shared_ptr<grpc_core::EndpointAddressesIterator>>>, grpc_core::RefCountedStringValueLessThan>::_Rb_tree_impl" }
%"struct.std::_Rb_tree<grpc_core::RefCountedStringValue, std::pair<const grpc_core::RefCountedStringValue, std::shared_ptr<grpc_core::EndpointAddressesIterator>>, std::_Select1st<std::pair<const grpc_core::RefCountedStringValue, std::shared_ptr<grpc_core::EndpointAddressesIterator>>>, grpc_core::RefCountedStringValueLessThan>::_Rb_tree_impl" = type { %"struct.std::_Rb_tree_key_compare.196", %"struct.std::_Rb_tree_header" }
%"struct.std::_Rb_tree_key_compare.196" = type { %"struct.grpc_core::RefCountedStringValueLessThan" }
%"struct.grpc_core::RefCountedStringValueLessThan" = type { i8 }
%"class.std::map.201" = type { %"class.std::_Rb_tree.202" }
%"class.std::_Rb_tree.202" = type { %"struct.std::_Rb_tree<std::__cxx11::basic_string<char>, std::pair<const std::__cxx11::basic_string<char>, std::unique_ptr<grpc_core::(anonymous namespace)::PriorityLb::ChildPriority, grpc_core::OrphanableDelete>>, std::_Select1st<std::pair<const std::__cxx11::basic_string<char>, std::unique_ptr<grpc_core::(anonymous namespace)::PriorityLb::ChildPriority, grpc_core::OrphanableDelete>>>, std::less<std::__cxx11::basic_string<char>>>::_Rb_tree_impl" }
%"struct.std::_Rb_tree<std::__cxx11::basic_string<char>, std::pair<const std::__cxx11::basic_string<char>, std::unique_ptr<grpc_core::(anonymous namespace)::PriorityLb::ChildPriority, grpc_core::OrphanableDelete>>, std::_Select1st<std::pair<const std::__cxx11::basic_string<char>, std::unique_ptr<grpc_core::(anonymous namespace)::PriorityLb::ChildPriority, grpc_core::OrphanableDelete>>>, std::less<std::__cxx11::basic_string<char>>>::_Rb_tree_impl" = type { %"struct.std::_Rb_tree_key_compare.80", %"struct.std::_Rb_tree_header" }
%"class.std::unique_ptr.231" = type { %"struct.std::__uniq_ptr_data.232" }
%"struct.std::__uniq_ptr_data.232" = type { %"class.std::__uniq_ptr_impl.233" }
%"class.std::__uniq_ptr_impl.233" = type { %"class.std::tuple.234" }
%"class.std::tuple.234" = type { %"struct.std::_Tuple_impl.235" }
%"struct.std::_Tuple_impl.235" = type { %"struct.std::_Head_base.236" }
%"struct.std::_Head_base.236" = type { ptr }
%"class.grpc_core::RefCountedPtr.249" = type { ptr }
%"class.grpc_core::(anonymous namespace)::PriorityLb::ChildPriority" = type { %"class.grpc_core::InternallyRefCounted.228", %"class.grpc_core::RefCountedPtr.229", %"class.std::__cxx11::basic_string", i8, %"class.std::unique_ptr.164", i32, %"class.absl::lts_20230802::Status", %"class.grpc_core::RefCountedPtr.230", i8, %"class.std::unique_ptr.231", %"class.std::unique_ptr.237" }
%"class.grpc_core::InternallyRefCounted.228" = type { %"class.grpc_core::Orphanable", %"class.grpc_core::RefCount" }
%"class.grpc_core::RefCountedPtr.229" = type { ptr }
%"class.grpc_core::RefCountedPtr.230" = type { ptr }
%"class.std::unique_ptr.237" = type { %"struct.std::__uniq_ptr_data.238" }
%"struct.std::__uniq_ptr_data.238" = type { %"class.std::__uniq_ptr_impl.239" }
%"class.std::__uniq_ptr_impl.239" = type { %"class.std::tuple.240" }
%"class.std::tuple.240" = type { %"struct.std::_Tuple_impl.241" }
%"struct.std::_Tuple_impl.241" = type { %"struct.std::_Head_base.242" }
%"struct.std::_Head_base.242" = type { ptr }
%"class.grpc_core::(anonymous namespace)::PriorityLb::ChildPriority::Helper" = type { %"class.grpc_core::LoadBalancingPolicy::DelegatingChannelControlHelper", %"class.grpc_core::RefCountedPtr.249" }
%"class.grpc_core::LoadBalancingPolicy::DelegatingChannelControlHelper" = type { %"class.grpc_core::LoadBalancingPolicy::ChannelControlHelper" }
%"class.grpc_core::LoadBalancingPolicy::ChannelControlHelper" = type { ptr }

; Function Attrs: mustprogress nounwind uwtable
define linkonce_odr noundef nonnull align 8 dereferenceable(8) ptr @_ZNSt10_Head_baseILm0EPN9grpc_core19LoadBalancingPolicy20ChannelControlHelperELb0EE7_M_headERKS4_(ptr noundef nonnull align 8 dereferenceable(8) %__b) #5 comdat align 2 {
entry:
  %__b.addr = alloca ptr, align 8
  store ptr %__b, ptr %__b.addr, align 8
  %0 = load ptr, ptr %__b.addr, align 8
  %_M_head_impl = getelementptr inbounds %"struct.std::_Head_base.179", ptr %0, i32 0, i32 0
  ret ptr %_M_head_impl
}

; Function Attrs: mustprogress nounwind uwtable
define linkonce_odr noundef nonnull align 8 dereferenceable(8) ptr @_ZNSt11_Tuple_implILm0EJPN9grpc_core19LoadBalancingPolicy20ChannelControlHelperESt14default_deleteIS2_EEE7_M_headERKS6_(ptr noundef nonnull align 8 dereferenceable(8) %__t) #5 comdat align 2 {
entry:
  %__t.addr = alloca ptr, align 8
  store ptr %__t, ptr %__t.addr, align 8
  %0 = load ptr, ptr %__t.addr, align 8
  %call = call noundef nonnull align 8 dereferenceable(8) ptr @_ZNSt10_Head_baseILm0EPN9grpc_core19LoadBalancingPolicy20ChannelControlHelperELb0EE7_M_headERKS4_(ptr noundef nonnull align 8 dereferenceable(8) %0) #3
  ret ptr %call
}

; Function Attrs: mustprogress nounwind uwtable
define linkonce_odr noundef nonnull align 8 dereferenceable(8) ptr @_ZSt12__get_helperILm0EPN9grpc_core19LoadBalancingPolicy20ChannelControlHelperEJSt14default_deleteIS2_EEERKT0_RKSt11_Tuple_implIXT_EJS6_DpT1_EE(ptr noundef nonnull align 8 dereferenceable(8) %__t) #5 comdat {
entry:
  %__t.addr = alloca ptr, align 8
  store ptr %__t, ptr %__t.addr, align 8
  %0 = load ptr, ptr %__t.addr, align 8
  %call = call noundef nonnull align 8 dereferenceable(8) ptr @_ZNSt11_Tuple_implILm0EJPN9grpc_core19LoadBalancingPolicy20ChannelControlHelperESt14default_deleteIS2_EEE7_M_headERKS6_(ptr noundef nonnull align 8 dereferenceable(8) %0) #3
  ret ptr %call
}

; Function Attrs: mustprogress nounwind uwtable
define linkonce_odr noundef nonnull align 8 dereferenceable(8) ptr @_ZSt3getILm0EJPN9grpc_core19LoadBalancingPolicy20ChannelControlHelperESt14default_deleteIS2_EEERKNSt13tuple_elementIXT_ESt5tupleIJDpT0_EEE4typeERKSA_(ptr noundef nonnull align 8 dereferenceable(8) %__t) #5 comdat {
entry:
  %__t.addr = alloca ptr, align 8
  store ptr %__t, ptr %__t.addr, align 8
  %0 = load ptr, ptr %__t.addr, align 8
  %call = call noundef nonnull align 8 dereferenceable(8) ptr @_ZSt12__get_helperILm0EPN9grpc_core19LoadBalancingPolicy20ChannelControlHelperEJSt14default_deleteIS2_EEERKT0_RKSt11_Tuple_implIXT_EJS6_DpT1_EE(ptr noundef nonnull align 8 dereferenceable(8) %0) #3
  ret ptr %call
}

; Function Attrs: mustprogress nounwind uwtable
define linkonce_odr noundef ptr @_ZNKSt15__uniq_ptr_implIN9grpc_core19LoadBalancingPolicy20ChannelControlHelperESt14default_deleteIS2_EE6_M_ptrEv(ptr noundef nonnull align 8 dereferenceable(8) %this) #5 comdat align 2 {
entry:
  %this.addr = alloca ptr, align 8
  store ptr %this, ptr %this.addr, align 8
  %this1 = load ptr, ptr %this.addr, align 8
  %_M_t = getelementptr inbounds %"class.std::__uniq_ptr_impl.174", ptr %this1, i32 0, i32 0
  %call = call noundef nonnull align 8 dereferenceable(8) ptr @_ZSt3getILm0EJPN9grpc_core19LoadBalancingPolicy20ChannelControlHelperESt14default_deleteIS2_EEERKNSt13tuple_elementIXT_ESt5tupleIJDpT0_EEE4typeERKSA_(ptr noundef nonnull align 8 dereferenceable(8) %_M_t) #3
  %0 = load ptr, ptr %call, align 8
  ret ptr %0
}

; Function Attrs: mustprogress nounwind uwtable
define linkonce_odr noundef ptr @_ZNKSt10unique_ptrIN9grpc_core19LoadBalancingPolicy20ChannelControlHelperESt14default_deleteIS2_EE3getEv(ptr noundef nonnull align 8 dereferenceable(8) %this) #5 comdat align 2 {
entry:
  %this.addr = alloca ptr, align 8
  store ptr %this, ptr %this.addr, align 8
  %this1 = load ptr, ptr %this.addr, align 8
  %_M_t = getelementptr inbounds %"class.std::unique_ptr.172", ptr %this1, i32 0, i32 0
  %call = call noundef ptr @_ZNKSt15__uniq_ptr_implIN9grpc_core19LoadBalancingPolicy20ChannelControlHelperESt14default_deleteIS2_EE6_M_ptrEv(ptr noundef nonnull align 8 dereferenceable(8) %_M_t) #3
  ret ptr %call
}

; Function Attrs: mustprogress nounwind uwtable
define linkonce_odr noundef ptr @_ZNK9grpc_core19LoadBalancingPolicy22channel_control_helperEv(ptr noundef nonnull align 8 dereferenceable(56) %this) #5 comdat align 2 {
entry:
  %this.addr = alloca ptr, align 8
  store ptr %this, ptr %this.addr, align 8
  %this1 = load ptr, ptr %this.addr, align 8
  %channel_control_helper_ = getelementptr inbounds %"class.grpc_core::LoadBalancingPolicy", ptr %this1, i32 0, i32 3
  %call = call noundef ptr @_ZNKSt10unique_ptrIN9grpc_core19LoadBalancingPolicy20ChannelControlHelperESt14default_deleteIS2_EE3getEv(ptr noundef nonnull align 8 dereferenceable(8) %channel_control_helper_) #3
  ret ptr %call
}

; Function Attrs: mustprogress nounwind uwtable
define internal noundef ptr @_ZNK9grpc_core13RefCountedPtrINS_12_GLOBAL__N_110PriorityLbEEptEv(ptr noundef nonnull align 8 dereferenceable(8) %this) #5 align 2 {
entry:
  %this.addr = alloca ptr, align 8
  store ptr %this, ptr %this.addr, align 8
  %this1 = load ptr, ptr %this.addr, align 8
  %value_ = getelementptr inbounds %"class.grpc_core::RefCountedPtr.229", ptr %this1, i32 0, i32 0
  %0 = load ptr, ptr %value_, align 8
  ret ptr %0
}

; Function Attrs: mustprogress nounwind uwtable
define internal noundef ptr @_ZNK9grpc_core13RefCountedPtrINS_12_GLOBAL__N_110PriorityLb13ChildPriorityEEptEv(ptr noundef nonnull align 8 dereferenceable(8) %this) #5 align 2 {
entry:
  %this.addr = alloca ptr, align 8
  store ptr %this, ptr %this.addr, align 8
  %this1 = load ptr, ptr %this.addr, align 8
  %value_ = getelementptr inbounds %"class.grpc_core::RefCountedPtr.249", ptr %this1, i32 0, i32 0
  %0 = load ptr, ptr %value_, align 8
  ret ptr %0
}

; Function Attrs: mustprogress uwtable
define internal void @_ZN9grpc_core12_GLOBAL__N_110PriorityLb13ChildPriority6Helper19RequestReresolutionEv(ptr noundef nonnull align 8 dereferenceable(16) %this) unnamed_addr #4 align 2 {
entry:
  %this.addr = alloca ptr, align 8
  store ptr %this, ptr %this.addr, align 8
  %this1 = load ptr, ptr %this.addr, align 8
  %priority_ = getelementptr inbounds %"class.grpc_core::(anonymous namespace)::PriorityLb::ChildPriority::Helper", ptr %this1, i32 0, i32 1
  %call = call noundef ptr @_ZNK9grpc_core13RefCountedPtrINS_12_GLOBAL__N_110PriorityLb13ChildPriorityEEptEv(ptr noundef nonnull align 8 dereferenceable(8) %priority_)
  %priority_policy_ = getelementptr inbounds %"class.grpc_core::(anonymous namespace)::PriorityLb::ChildPriority", ptr %call, i32 0, i32 1
  %call2 = call noundef ptr @_ZNK9grpc_core13RefCountedPtrINS_12_GLOBAL__N_110PriorityLbEEptEv(ptr noundef nonnull align 8 dereferenceable(8) %priority_policy_)
  %shutting_down_ = getelementptr inbounds %"class.grpc_core::(anonymous namespace)::PriorityLb", ptr %call2, i32 0, i32 6
  %0 = load i8, ptr %shutting_down_, align 8
  %tobool = trunc i8 %0 to i1
  br i1 %tobool, label %if.then, label %if.end

if.then:                                          ; preds = %entry
  br label %return

if.end:                                           ; preds = %entry
  %priority_3 = getelementptr inbounds %"class.grpc_core::(anonymous namespace)::PriorityLb::ChildPriority::Helper", ptr %this1, i32 0, i32 1
  %call4 = call noundef ptr @_ZNK9grpc_core13RefCountedPtrINS_12_GLOBAL__N_110PriorityLb13ChildPriorityEEptEv(ptr noundef nonnull align 8 dereferenceable(8) %priority_3)
  %ignore_reresolution_requests_ = getelementptr inbounds %"class.grpc_core::(anonymous namespace)::PriorityLb::ChildPriority", ptr %call4, i32 0, i32 3
  %1 = load i8, ptr %ignore_reresolution_requests_, align 8
  %tobool5 = trunc i8 %1 to i1
  br i1 %tobool5, label %if.then6, label %if.end7

if.then6:                                         ; preds = %if.end
  br label %return

if.end7:                                          ; preds = %if.end
  %priority_8 = getelementptr inbounds %"class.grpc_core::(anonymous namespace)::PriorityLb::ChildPriority::Helper", ptr %this1, i32 0, i32 1
  %call9 = call noundef ptr @_ZNK9grpc_core13RefCountedPtrINS_12_GLOBAL__N_110PriorityLb13ChildPriorityEEptEv(ptr noundef nonnull align 8 dereferenceable(8) %priority_8)
  %priority_policy_10 = getelementptr inbounds %"class.grpc_core::(anonymous namespace)::PriorityLb::ChildPriority", ptr %call9, i32 0, i32 1
  %call11 = call noundef ptr @_ZNK9grpc_core13RefCountedPtrINS_12_GLOBAL__N_110PriorityLbEEptEv(ptr noundef nonnull align 8 dereferenceable(8) %priority_policy_10)
  %call12 = call noundef ptr @_ZNK9grpc_core19LoadBalancingPolicy22channel_control_helperEv(ptr noundef nonnull align 8 dereferenceable(56) %call11)
  %vtable = load ptr, ptr %call12, align 8
  %vfn = getelementptr inbounds ptr, ptr %vtable, i64 4
  %2 = load ptr, ptr %vfn, align 8
  call void %2(ptr noundef nonnull align 8 dereferenceable(8) %call12)
  br label %return

return:                                           ; preds = %if.end7, %if.then6, %if.then
  ret void
}