; Function Attrs: mustprogress uwtable
define internal void @_ZN9grpc_core12_GLOBAL__N_110PriorityLb13ChildPriority6Helper19RequestReresolutionEv(ptr nocapture noundef nonnull readonly align 8 dereferenceable(16) %this) unnamed_addr #3 align 2 {
entry:
  %priority_ = getelementptr inbounds i8, ptr %this, i64 8
  %priority_.val2 = load ptr, ptr %priority_, align 8
  %priority_policy_ = getelementptr inbounds i8, ptr %priority_.val2, i64 16
  %priority_policy_.val = load ptr, ptr %priority_policy_, align 8
  %shutting_down_ = getelementptr inbounds i8, ptr %priority_policy_.val, i64 168
  %0 = load i8, ptr %shutting_down_, align 8
  %1 = and i8 %0, 1
  %tobool.not = icmp eq i8 %1, 0
  br i1 %tobool.not, label %if.end, label %return

if.end:                                           ; preds = %entry
  %ignore_reresolution_requests_ = getelementptr inbounds i8, ptr %priority_.val2, i64 56
  %2 = load i8, ptr %ignore_reresolution_requests_, align 8
  %3 = and i8 %2, 1
  %tobool5.not = icmp eq i8 %3, 0
  br i1 %tobool5.not, label %if.end7, label %return

if.end7:                                          ; preds = %if.end
  %channel_control_helper_.i = getelementptr inbounds i8, ptr %priority_policy_.val, i64 40
  %4 = load ptr, ptr %channel_control_helper_.i, align 8
  %vtable = load ptr, ptr %4, align 8
  %vfn = getelementptr inbounds i8, ptr %vtable, i64 32
  %5 = load ptr, ptr %vfn, align 8
  tail call void %5(ptr noundef nonnull align 8 dereferenceable(8) %4)
  br label %return

return:                                           ; preds = %if.end, %entry, %if.end7
  ret void
}